; Function Attrs: cold nounwind optsize uwtable
define internal noundef i32 @on2avc_decode_close(ptr noundef readonly captures(none) %0) #0 {
  %2 = getelementptr inbounds nuw i8, ptr %0, i64 32
  %3 = load ptr, ptr %2, align 8, !tbaa !4
  %4 = getelementptr inbounds nuw i8, ptr %3, i64 16
  tail call void @av_tx_uninit(ptr noundef nonnull %4) #11
  %5 = getelementptr inbounds nuw i8, ptr %3, i64 24
  tail call void @av_tx_uninit(ptr noundef nonnull %5) #11
  %6 = getelementptr inbounds nuw i8, ptr %3, i64 32
  tail call void @av_tx_uninit(ptr noundef nonnull %6) #11
  %7 = getelementptr inbounds nuw i8, ptr %3, i64 40
  tail call void @av_tx_uninit(ptr noundef nonnull %7) #11
  %8 = getelementptr inbounds nuw i8, ptr %3, i64 48
  tail call void @av_tx_uninit(ptr noundef nonnull %8) #11
  %9 = getelementptr inbounds nuw i8, ptr %3, i64 56
  tail call void @av_tx_uninit(ptr noundef nonnull %9) #11
  %10 = getelementptr inbounds nuw i8, ptr %3, i64 64
  tail call void @av_tx_uninit(ptr noundef nonnull %10) #11
  %11 = getelementptr inbounds nuw i8, ptr %3, i64 8
  tail call void @av_freep(ptr noundef nonnull %11) #11
  tail call fastcc void @on2avc_free_vlcs(ptr noundef %3) #13
  ret i32 0
}